; ModuleID = '25/4.cpp'
source_filename = "25/4.cpp"
target datalayout = "e-m:e-p270:32:32-p271:32:32-p272:64:64-i64:64-f80:128-n8:16:32:64-S128"
target triple = "x86_64-pc-linux-gnu"

%"class.std::ios_base::Init" = type { i8 }
%"class.std::basic_istream" = type { i32 (...)**, i64, %"class.std::basic_ios" }
%"class.std::basic_ios" = type { %"class.std::ios_base", %"class.std::basic_ostream"*, i8, i8, %"class.std::basic_streambuf"*, %"class.std::ctype"*, %"class.std::num_put"*, %"class.std::num_get"* }
%"class.std::ios_base" = type { i32 (...)**, i64, i64, i32, i32, i32, %"struct.std::ios_base::_Callback_list"*, %"struct.std::ios_base::_Words", [8 x %"struct.std::ios_base::_Words"], i32, %"struct.std::ios_base::_Words"*, %"class.std::locale" }
%"struct.std::ios_base::_Callback_list" = type { %"struct.std::ios_base::_Callback_list"*, void (i32, %"class.std::ios_base"*, i32)*, i32, i32 }
%"struct.std::ios_base::_Words" = type { i8*, i64 }
%"class.std::locale" = type { %"class.std::locale::_Impl"* }
%"class.std::locale::_Impl" = type { i32, %"class.std::locale::facet"**, i64, %"class.std::locale::facet"**, i8** }
%"class.std::locale::facet" = type <{ i32 (...)**, i32, [4 x i8] }>
%"class.std::basic_ostream" = type { i32 (...)**, %"class.std::basic_ios" }
%"class.std::basic_streambuf" = type { i32 (...)**, i8*, i8*, i8*, i8*, i8*, i8*, %"class.std::locale" }
%"class.std::ctype" = type <{ %"class.std::locale::facet.base", [4 x i8], %struct.__locale_struct*, i8, [7 x i8], i32*, i32*, i16*, i8, [256 x i8], [256 x i8], i8, [6 x i8] }>
%"class.std::locale::facet.base" = type <{ i32 (...)**, i32 }>
%struct.__locale_struct = type { [13 x %struct.__locale_data*], i16*, i32*, i32*, [13 x i8*] }
%struct.__locale_data = type opaque
%"class.std::num_put" = type { %"class.std::locale::facet.base", [4 x i8] }
%"class.std::num_get" = type { %"class.std::locale::facet.base", [4 x i8] }

@_ZStL8__ioinit = internal global %"class.std::ios_base::Init" zeroinitializer, align 1
@__dso_handle = external hidden global i8
@_ZSt3cin = external dso_local global %"class.std::basic_istream", align 8
@_ZSt4cout = external dso_local global %"class.std::basic_ostream", align 8
@llvm.global_ctors = appending global [1 x { i32, void ()*, i8* }] [{ i32, void ()*, i8* } { i32 65535, void ()* @_GLOBAL__sub_I_4.cpp, i8* null }]

; Function Attrs: noinline uwtable
define internal void @__cxx_global_var_init() #0 section ".text.startup" {
  call void @_ZNSt8ios_base4InitC1Ev(%"class.std::ios_base::Init"* @_ZStL8__ioinit)
  %1 = call i32 @__cxa_atexit(void (i8*)* bitcast (void (%"class.std::ios_base::Init"*)* @_ZNSt8ios_base4InitD1Ev to void (i8*)*), i8* getelementptr inbounds (%"class.std::ios_base::Init", %"class.std::ios_base::Init"* @_ZStL8__ioinit, i32 0, i32 0), i8* @__dso_handle) #3
  ret void
}

declare dso_local void @_ZNSt8ios_base4InitC1Ev(%"class.std::ios_base::Init"*) unnamed_addr #1

; Function Attrs: nounwind
declare dso_local void @_ZNSt8ios_base4InitD1Ev(%"class.std::ios_base::Init"*) unnamed_addr #2

; Function Attrs: nounwind
declare dso_local i32 @__cxa_atexit(void (i8*)*, i8*, i8*) #3

; Function Attrs: noinline norecurse uwtable
define dso_local i32 @main() #4 {
  %1 = alloca i32, align 4
  %2 = alloca [1000 x i32], align 16
  %3 = alloca i32, align 4
  %4 = alloca i32, align 4
  %5 = alloca i32*, align 8
  store i32 0, i32* %1, align 4
  %6 = call dereferenceable(280) %"class.std::basic_istream"* @_ZNSirsERi(%"class.std::basic_istream"* @_ZSt3cin, i32* dereferenceable(4) %4)
  %7 = getelementptr inbounds [1000 x i32], [1000 x i32]* %2, i64 0, i64 0
  %8 = bitcast i32* %7 to i8*
  call void @llvm.memset.p0i8.i64(i8* align 16 %8, i8 0, i64 4000, i1 false)
  %9 = getelementptr inbounds [1000 x i32], [1000 x i32]* %2, i64 0, i64 0
  store i32 1, i32* %9, align 16
  store i32 1, i32* %3, align 4
  br label %10

10:                                               ; preds = %16, %0
  %11 = load i32, i32* %3, align 4
  %12 = load i32, i32* %4, align 4
  %13 = icmp sle i32 %11, %12
  br i1 %13, label %14, label %19

14:                                               ; preds = %10
  %15 = getelementptr inbounds [1000 x i32], [1000 x i32]* %2, i64 0, i64 0
  call void @_Z3funPi(i32* %15)
  br label %16

16:                                               ; preds = %14
  %17 = load i32, i32* %3, align 4
  %18 = add nsw i32 %17, 1
  store i32 %18, i32* %3, align 4
  br label %10

19:                                               ; preds = %10
  store i32* null, i32** %5, align 8
  %20 = getelementptr inbounds [1000 x i32], [1000 x i32]* %2, i64 0, i64 0
  %21 = getelementptr inbounds i32, i32* %20, i64 999
  store i32* %21, i32** %5, align 8
  br label %22

22:                                               ; preds = %27, %19
  %23 = load i32*, i32** %5, align 8
  %24 = load i32, i32* %23, align 4
  %25 = icmp eq i32 %24, 0
  br i1 %25, label %26, label %30

26:                                               ; preds = %22
  br label %27

27:                                               ; preds = %26
  %28 = load i32*, i32** %5, align 8
  %29 = getelementptr inbounds i32, i32* %28, i32 -1
  store i32* %29, i32** %5, align 8
  br label %22

30:                                               ; preds = %22
  br label %31

31:                                               ; preds = %39, %30
  %32 = load i32*, i32** %5, align 8
  %33 = getelementptr inbounds [1000 x i32], [1000 x i32]* %2, i64 0, i64 0
  %34 = icmp uge i32* %32, %33
  br i1 %34, label %35, label %42

35:                                               ; preds = %31
  %36 = load i32*, i32** %5, align 8
  %37 = load i32, i32* %36, align 4
  %38 = call dereferenceable(272) %"class.std::basic_ostream"* @_ZNSolsEi(%"class.std::basic_ostream"* @_ZSt4cout, i32 %37)
  br label %39

39:                                               ; preds = %35
  %40 = load i32*, i32** %5, align 8
  %41 = getelementptr inbounds i32, i32* %40, i32 -1
  store i32* %41, i32** %5, align 8
  br label %31

42:                                               ; preds = %31
  ret i32 0
}

declare dso_local dereferenceable(280) %"class.std::basic_istream"* @_ZNSirsERi(%"class.std::basic_istream"*, i32* dereferenceable(4)) #1

; Function Attrs: argmemonly nounwind willreturn
declare void @llvm.memset.p0i8.i64(i8* nocapture writeonly, i8, i64, i1 immarg) #5

; Function Attrs: noinline nounwind uwtable
define dso_local void @_Z3funPi(i32* %0) #6 {
  %2 = alloca i32*, align 8
  %3 = alloca i32*, align 8
  store i32* %0, i32** %2, align 8
  store i32* null, i32** %3, align 8
  %4 = load i32*, i32** %2, align 8
  store i32* %4, i32** %3, align 8
  br label %5

5:                                                ; preds = %15, %1
  %6 = load i32*, i32** %3, align 8
  %7 = load i32*, i32** %2, align 8
  %8 = getelementptr inbounds i32, i32* %7, i64 1000
  %9 = icmp ult i32* %6, %8
  br i1 %9, label %10, label %18

10:                                               ; preds = %5
  %11 = load i32*, i32** %3, align 8
  %12 = load i32, i32* %11, align 4
  %13 = mul nsw i32 2, %12
  %14 = load i32*, i32** %3, align 8
  store i32 %13, i32* %14, align 4
  br label %15

15:                                               ; preds = %10
  %16 = load i32*, i32** %3, align 8
  %17 = getelementptr inbounds i32, i32* %16, i32 1
  store i32* %17, i32** %3, align 8
  br label %5

18:                                               ; preds = %5
  %19 = load i32*, i32** %2, align 8
  store i32* %19, i32** %3, align 8
  br label %20

20:                                               ; preds = %41, %18
  %21 = load i32*, i32** %3, align 8
  %22 = load i32*, i32** %2, align 8
  %23 = getelementptr inbounds i32, i32* %22, i64 1000
  %24 = icmp ult i32* %21, %23
  br i1 %24, label %25, label %44

25:                                               ; preds = %20
  %26 = load i32*, i32** %3, align 8
  %27 = load i32, i32* %26, align 4
  %28 = icmp sgt i32 %27, 9
  br i1 %28, label %29, label %40

29:                                               ; preds = %25
  %30 = load i32*, i32** %3, align 8
  %31 = load i32, i32* %30, align 4
  %32 = sub nsw i32 %31, 10
  %33 = load i32*, i32** %3, align 8
  store i32 %32, i32* %33, align 4
  %34 = load i32*, i32** %3, align 8
  %35 = getelementptr inbounds i32, i32* %34, i64 1
  %36 = load i32, i32* %35, align 4
  %37 = add nsw i32 %36, 1
  %38 = load i32*, i32** %3, align 8
  %39 = getelementptr inbounds i32, i32* %38, i64 1
  store i32 %37, i32* %39, align 4
  br label %40

40:                                               ; preds = %29, %25
  br label %41

41:                                               ; preds = %40
  %42 = load i32*, i32** %3, align 8
  %43 = getelementptr inbounds i32, i32* %42, i32 1
  store i32* %43, i32** %3, align 8
  br label %20

44:                                               ; preds = %20
  ret void
}

declare dso_local dereferenceable(272) %"class.std::basic_ostream"* @_ZNSolsEi(%"class.std::basic_ostream"*, i32) #1

; Function Attrs: noinline uwtable
define internal void @_GLOBAL__sub_I_4.cpp() #0 section ".text.startup" {
  call void @__cxx_global_var_init()
  ret void
}


!llvm.module.flags = !{!0}
!llvm.ident = !{!1}

!0 = !{i32 1, !"wchar_size", i32 4}
!1 = !{!"clang version 10.0.0-4ubuntu1 "}
